target datalayout = "e-m:e-p270:32:32-p271:32:32-p272:64:64-i64:64-i128:128-f80:128-n8:16:32:64-S128"
target triple = "x86_64-unknown-linux-gnu"

%struct.MemoryListener = type { ptr, ptr, ptr, ptr, ptr, ptr, ptr, ptr, ptr, ptr, ptr, ptr, ptr, ptr, ptr, ptr, ptr, i32, ptr, ptr, %union.anon, %union.anon.0 }
%union.anon = type { %struct.QTailQLink }
%struct.QTailQLink = type { ptr, ptr }
%union.anon.0 = type { %struct.QTailQLink }
%struct.EventNotifier = type { i32, i32, i8 }
%struct.NetClientState = type { ptr, i32, %union.anon.3, ptr, ptr, ptr, ptr, [256 x i8], i8, ptr, i32, i8, i32, i32, i8, i8, i8, %union.anon.4 }
%union.anon.3 = type { %struct.QTailQLink }
%union.anon.4 = type { %struct.QTailQLink }
%struct.NetClientInfo = type { i32, i64, ptr, ptr, ptr, ptr, ptr, ptr, ptr, ptr, ptr, ptr, ptr, ptr, ptr, ptr, ptr, ptr, ptr, ptr, ptr, ptr, ptr, ptr, ptr, ptr, ptr }
%struct.VirtioBusClass = type { %struct.BusClass, ptr, ptr, ptr, ptr, ptr, ptr, ptr, ptr, ptr, ptr, ptr, ptr, ptr, ptr, ptr, ptr, ptr, ptr, ptr, ptr, i8, ptr, ptr }
%struct.BusClass = type { %struct.ObjectClass, ptr, ptr, ptr, ptr, ptr, ptr, ptr, i32, i32 }
%struct.ObjectClass = type { ptr, ptr, [4 x ptr], [4 x ptr], ptr, ptr }
%struct.VirtIONet = type { %struct.VirtIODevice, [6 x i8], i16, ptr, ptr, ptr, %union.anon.6, i32, i32, i32, i64, i64, i64, i32, i8, i8, i8, i32, i8, i8, i8, i8, i8, i8, i8, %struct.anon.7, ptr, %struct.virtio_net_conf, %struct.NICConf, ptr, i32, i16, i16, i16, i64, ptr, ptr, i64, i64, %struct.AnnounceTimer, i8, i8, i8, i8, %struct.DeviceListener, ptr, i8, %struct.Notifier, %struct.VirtioNetRssData, ptr, %struct.EBPFRSSContext }
%struct.VirtIODevice = type { %struct.DeviceState, ptr, i8, i8, i16, i64, i64, i64, i64, ptr, i16, i32, i32, ptr, %struct.MemoryListener, i16, i8, i8, i8, i8, i8, i8, i8, i8, i8, ptr, ptr, i8, i8, ptr, ptr, %union.anon.5, %struct.EventNotifier, i8 }
%struct.DeviceState = type { %struct.Object, ptr, ptr, i8, i8, i64, ptr, i32, i8, ptr, %struct.NamedGPIOListHead, %struct.NamedClockListHead, %struct.BusStateHead, i32, i32, i32, %struct.ResettableState, ptr, %struct.MemReentrancyGuard }
%struct.Object = type { ptr, ptr, ptr, i32, ptr }
%struct.NamedGPIOListHead = type { ptr }
%struct.NamedClockListHead = type { ptr }
%struct.BusStateHead = type { ptr }
%struct.ResettableState = type { i32, i8, i8 }
%struct.MemReentrancyGuard = type { i8 }
%union.anon.5 = type { %struct.QTailQLink }
%union.anon.6 = type { %struct.QTailQLink }
%struct.anon.7 = type { i32, i32, i8, i8, ptr }
%struct.virtio_net_conf = type { i32, i32, ptr, i16, i16, i16, i32, ptr, i8, ptr }
%struct.NICConf = type { %struct.MACAddr, %struct.NICPeers, i32 }
%struct.MACAddr = type { [6 x i8] }
%struct.NICPeers = type { [1024 x ptr], i32 }
%struct.AnnounceTimer = type { ptr, %struct.AnnounceParameters, i32, i32 }
%struct.AnnounceParameters = type { i64, i64, i64, i64, i8, ptr, ptr }
%struct.DeviceListener = type { ptr, ptr, ptr, %union.anon.8 }
%union.anon.8 = type { %struct.QTailQLink }
%struct.Notifier = type { ptr, %struct.anon.9 }
%struct.anon.9 = type { ptr, ptr }
%struct.VirtioNetRssData = type { i8, i8, i8, i8, i32, [40 x i8], i16, ptr, i16 }
%struct.EBPFRSSContext = type { ptr, i32, i32, i32, i32 }
%struct.BusState = type { %struct.Object, ptr, ptr, ptr, i32, i8, i8, i32, %union.BusChildHead, %struct.BusStateEntry, %struct.ResettableState }
%union.BusChildHead = type { %struct.QTailQLink }
%struct.BusStateEntry = type { ptr, ptr }

@stderr = external global ptr, align 8
@.str.4 = private unnamed_addr constant [41 x i8] c"vhost guest notifier cleanup failed: %d\0A\00", align 1
@.str.5 = private unnamed_addr constant [7 x i8] c"r >= 0\00", align 1
@.str.6 = private unnamed_addr constant [27 x i8] c"../qemu/hw/net/vhost_net.c\00", align 1
@__PRETTY_FUNCTION__.vhost_net_stop = private unnamed_addr constant [64 x i8] c"void vhost_net_stop(VirtIODevice *, NetClientState *, int, int)\00", align 1
@.str.9 = private unnamed_addr constant [10 x i8] c"vhost_net\00", align 1
@__PRETTY_FUNCTION__.get_vhost_net = private unnamed_addr constant [47 x i8] c"VHostNetState *get_vhost_net(NetClientState *)\00", align 1
@.str.15 = private unnamed_addr constant [4 x i8] c"bus\00", align 1
@.str.16 = private unnamed_addr constant [101 x i8] c"/home/dtcxzyw/WorkSpace/Projects/compilers/llvm-opt-benchmark/bench/qemu/qemu/include/hw/qdev-core.h\00", align 1
@__func__.BUS = private unnamed_addr constant [4 x i8] c"BUS\00", align 1
@.str.17 = private unnamed_addr constant [7 x i8] c"device\00", align 1
@__func__.DEVICE = private unnamed_addr constant [7 x i8] c"DEVICE\00", align 1
@.str.18 = private unnamed_addr constant [11 x i8] c"virtio-bus\00", align 1
@.str.19 = private unnamed_addr constant [109 x i8] c"/home/dtcxzyw/WorkSpace/Projects/compilers/llvm-opt-benchmark/bench/qemu/qemu/include/hw/virtio/virtio-bus.h\00", align 1
@__func__.VIRTIO_BUS = private unnamed_addr constant [11 x i8] c"VIRTIO_BUS\00", align 1
@__func__.VIRTIO_BUS_GET_CLASS = private unnamed_addr constant [21 x i8] c"VIRTIO_BUS_GET_CLASS\00", align 1
@.str.20 = private unnamed_addr constant [18 x i8] c"virtio-net-device\00", align 1
@.str.21 = private unnamed_addr constant [109 x i8] c"/home/dtcxzyw/WorkSpace/Projects/compilers/llvm-opt-benchmark/bench/qemu/qemu/include/hw/virtio/virtio-net.h\00", align 1
@__func__.VIRTIO_NET = private unnamed_addr constant [11 x i8] c"VIRTIO_NET\00", align 1

; Function Attrs: nounwind sspstrong uwtable
define dso_local ptr @get_vhost_net(ptr noundef %nc) #0 {
entry:
  %retval = alloca ptr, align 8
  %nc.addr = alloca ptr, align 8
  %vhost_net = alloca ptr, align 8
  store ptr %nc, ptr %nc.addr, align 8
  store ptr null, ptr %vhost_net, align 8
  %0 = load ptr, ptr %nc.addr, align 8
  %tobool = icmp ne ptr %0, null
  br i1 %tobool, label %if.end, label %if.then

if.then:                                          ; preds = %entry
  store ptr null, ptr %retval, align 8
  br label %return

if.end:                                           ; preds = %entry
  %1 = load ptr, ptr %nc.addr, align 8
  %info = getelementptr inbounds %struct.NetClientState, ptr %1, i32 0, i32 0
  %2 = load ptr, ptr %info, align 8
  %type = getelementptr inbounds %struct.NetClientInfo, ptr %2, i32 0, i32 0
  %3 = load i32, ptr %type, align 8
  switch i32 %3, label %sw.default [
    i32 3, label %sw.bb
    i32 12, label %sw.bb1
    i32 13, label %sw.bb6
  ]

sw.bb:                                            ; preds = %if.end
  %4 = load ptr, ptr %nc.addr, align 8
  %call = call ptr @tap_get_vhost_net(ptr noundef %4)
  store ptr %call, ptr %vhost_net, align 8
  br label %sw.epilog

sw.bb1:                                           ; preds = %if.end
  %5 = load ptr, ptr %nc.addr, align 8
  %call2 = call ptr @vhost_user_get_vhost_net(ptr noundef %5)
  store ptr %call2, ptr %vhost_net, align 8
  %6 = load ptr, ptr %vhost_net, align 8
  %tobool3 = icmp ne ptr %6, null
  br i1 %tobool3, label %if.then4, label %if.else

if.then4:                                         ; preds = %sw.bb1
  br label %if.end5

if.else:                                          ; preds = %sw.bb1
  call void @__assert_fail(ptr noundef @.str.9, ptr noundef @.str.6, i32 noundef 523, ptr noundef @__PRETTY_FUNCTION__.get_vhost_net) #8
  unreachable

if.end5:                                          ; preds = %if.then4
  br label %sw.epilog

sw.bb6:                                           ; preds = %if.end
  %7 = load ptr, ptr %nc.addr, align 8
  %call7 = call ptr @vhost_vdpa_get_vhost_net(ptr noundef %7)
  store ptr %call7, ptr %vhost_net, align 8
  %8 = load ptr, ptr %vhost_net, align 8
  %tobool8 = icmp ne ptr %8, null
  br i1 %tobool8, label %if.then9, label %if.else10

if.then9:                                         ; preds = %sw.bb6
  br label %if.end11

if.else10:                                        ; preds = %sw.bb6
  call void @__assert_fail(ptr noundef @.str.9, ptr noundef @.str.6, i32 noundef 529, ptr noundef @__PRETTY_FUNCTION__.get_vhost_net) #8
  unreachable

if.end11:                                         ; preds = %if.then9
  br label %sw.epilog

sw.default:                                       ; preds = %if.end
  br label %sw.epilog

sw.epilog:                                        ; preds = %sw.default, %if.end11, %if.end5, %sw.bb
  %9 = load ptr, ptr %vhost_net, align 8
  store ptr %9, ptr %retval, align 8
  br label %return

return:                                           ; preds = %sw.epilog, %if.then
  %10 = load ptr, ptr %retval, align 8
  ret ptr %10
}

; Function Attrs: nounwind sspstrong uwtable
define internal ptr @VIRTIO_NET(ptr noundef %obj) #0 {
entry:
  %obj.addr = alloca ptr, align 8
  store ptr %obj, ptr %obj.addr, align 8
  %0 = load ptr, ptr %obj.addr, align 8
  %call = call ptr @object_dynamic_cast_assert(ptr noundef %0, ptr noundef @.str.20, ptr noundef @.str.21, i32 noundef 27, ptr noundef @__func__.VIRTIO_NET)
  ret ptr %call
}

; Function Attrs: nounwind sspstrong uwtable
define internal ptr @VIRTIO_BUS_GET_CLASS(ptr noundef %obj) #0 {
entry:
  %obj.addr = alloca ptr, align 8
  store ptr %obj, ptr %obj.addr, align 8
  %0 = load ptr, ptr %obj.addr, align 8
  %call = call ptr @object_get_class(ptr noundef %0)
  %call1 = call ptr @object_class_dynamic_cast_assert(ptr noundef %call, ptr noundef @.str.18, ptr noundef @.str.19, i32 noundef 36, ptr noundef @__func__.VIRTIO_BUS_GET_CLASS)
  ret ptr %call1
}

; Function Attrs: nounwind sspstrong uwtable
define internal ptr @VIRTIO_BUS(ptr noundef %obj) #0 {
entry:
  %obj.addr = alloca ptr, align 8
  store ptr %obj, ptr %obj.addr, align 8
  %0 = load ptr, ptr %obj.addr, align 8
  %call = call ptr @object_dynamic_cast_assert(ptr noundef %0, ptr noundef @.str.18, ptr noundef @.str.19, i32 noundef 36, ptr noundef @__func__.VIRTIO_BUS)
  ret ptr %call
}

; Function Attrs: nounwind sspstrong uwtable
define internal ptr @BUS(ptr noundef %obj) #0 {
entry:
  %obj.addr = alloca ptr, align 8
  store ptr %obj, ptr %obj.addr, align 8
  %0 = load ptr, ptr %obj.addr, align 8
  %call = call ptr @object_dynamic_cast_assert(ptr noundef %0, ptr noundef @.str.15, ptr noundef @.str.16, i32 noundef 316, ptr noundef @__func__.BUS)
  ret ptr %call
}

; Function Attrs: nounwind sspstrong uwtable
define internal ptr @DEVICE(ptr noundef %obj) #0 {
entry:
  %obj.addr = alloca ptr, align 8
  store ptr %obj, ptr %obj.addr, align 8
  %0 = load ptr, ptr %obj.addr, align 8
  %call = call ptr @object_dynamic_cast_assert(ptr noundef %0, ptr noundef @.str.17, ptr noundef @.str.16, i32 noundef 77, ptr noundef @__func__.DEVICE)
  ret ptr %call
}

; Function Attrs: nounwind sspstrong uwtable
define dso_local void @vhost_net_stop(ptr noundef %dev, ptr noundef %ncs, i32 noundef %data_queue_pairs, i32 noundef %cvq) #0 {
entry:
  %dev.addr = alloca ptr, align 8
  %ncs.addr = alloca ptr, align 8
  %data_queue_pairs.addr = alloca i32, align 4
  %cvq.addr = alloca i32, align 4
  %qbus = alloca ptr, align 8
  %vbus = alloca ptr, align 8
  %k = alloca ptr, align 8
  %n = alloca ptr, align 8
  %peer = alloca ptr, align 8
  %total_notifiers = alloca i32, align 4
  %nvhosts = alloca i32, align 4
  %i = alloca i32, align 4
  %r = alloca i32, align 4
  store ptr %dev, ptr %dev.addr, align 8
  store ptr %ncs, ptr %ncs.addr, align 8
  store i32 %data_queue_pairs, ptr %data_queue_pairs.addr, align 4
  store i32 %cvq, ptr %cvq.addr, align 4
  %0 = load ptr, ptr %dev.addr, align 8
  %call = call ptr @DEVICE(ptr noundef %0)
  %call1 = call ptr @qdev_get_parent_bus(ptr noundef %call)
  %call2 = call ptr @BUS(ptr noundef %call1)
  store ptr %call2, ptr %qbus, align 8
  %1 = load ptr, ptr %qbus, align 8
  %call3 = call ptr @VIRTIO_BUS(ptr noundef %1)
  store ptr %call3, ptr %vbus, align 8
  %2 = load ptr, ptr %vbus, align 8
  %call4 = call ptr @VIRTIO_BUS_GET_CLASS(ptr noundef %2)
  store ptr %call4, ptr %k, align 8
  %3 = load ptr, ptr %dev.addr, align 8
  %call5 = call ptr @VIRTIO_NET(ptr noundef %3)
  store ptr %call5, ptr %n, align 8
  %4 = load i32, ptr %data_queue_pairs.addr, align 4
  %mul = mul i32 %4, 2
  %5 = load i32, ptr %cvq.addr, align 4
  %add = add i32 %mul, %5
  store i32 %add, ptr %total_notifiers, align 4
  %6 = load i32, ptr %data_queue_pairs.addr, align 4
  %7 = load i32, ptr %cvq.addr, align 4
  %add6 = add i32 %6, %7
  store i32 %add6, ptr %nvhosts, align 4
  store i32 0, ptr %i, align 4
  br label %for.cond

for.cond:                                         ; preds = %for.inc, %entry
  %8 = load i32, ptr %i, align 4
  %9 = load i32, ptr %nvhosts, align 4
  %cmp = icmp slt i32 %8, %9
  br i1 %cmp, label %for.body, label %for.end

for.body:                                         ; preds = %for.cond
  %10 = load i32, ptr %i, align 4
  %11 = load i32, ptr %data_queue_pairs.addr, align 4
  %cmp7 = icmp slt i32 %10, %11
  br i1 %cmp7, label %if.then, label %if.else

if.then:                                          ; preds = %for.body
  %12 = load ptr, ptr %ncs.addr, align 8
  %13 = load i32, ptr %i, align 4
  %call8 = call ptr @qemu_get_peer(ptr noundef %12, i32 noundef %13)
  store ptr %call8, ptr %peer, align 8
  br label %if.end

if.else:                                          ; preds = %for.body
  %14 = load ptr, ptr %ncs.addr, align 8
  %15 = load ptr, ptr %n, align 8
  %max_queue_pairs = getelementptr inbounds %struct.VirtIONet, ptr %15, i32 0, i32 31
  %16 = load i16, ptr %max_queue_pairs, align 4
  %conv = zext i16 %16 to i32
  %call9 = call ptr @qemu_get_peer(ptr noundef %14, i32 noundef %conv)
  store ptr %call9, ptr %peer, align 8
  br label %if.end

if.end:                                           ; preds = %if.else, %if.then
  %17 = load ptr, ptr %peer, align 8
  %call10 = call ptr @get_vhost_net(ptr noundef %17)
  %18 = load ptr, ptr %dev.addr, align 8
  call void @vhost_net_stop_one(ptr noundef %call10, ptr noundef %18)
  br label %for.inc

for.inc:                                          ; preds = %if.end
  %19 = load i32, ptr %i, align 4
  %inc = add i32 %19, 1
  store i32 %inc, ptr %i, align 4
  br label %for.cond, !llvm.loop !12

for.end:                                          ; preds = %for.cond
  %20 = load ptr, ptr %k, align 8
  %set_guest_notifiers = getelementptr inbounds %struct.VirtioBusClass, ptr %20, i32 0, i32 11
  %21 = load ptr, ptr %set_guest_notifiers, align 8
  %22 = load ptr, ptr %qbus, align 8
  %parent = getelementptr inbounds %struct.BusState, ptr %22, i32 0, i32 1
  %23 = load ptr, ptr %parent, align 8
  %24 = load i32, ptr %total_notifiers, align 4
  %call11 = call i32 %21(ptr noundef %23, i32 noundef %24, i1 noundef zeroext false)
  store i32 %call11, ptr %r, align 4
  %25 = load i32, ptr %r, align 4
  %cmp12 = icmp slt i32 %25, 0
  br i1 %cmp12, label %if.then14, label %if.end17

if.then14:                                        ; preds = %for.end
  %26 = load ptr, ptr @stderr, align 8
  %27 = load i32, ptr %r, align 4
  %call15 = call i32 (ptr, ptr, ...) @fprintf(ptr noundef %26, ptr noundef @.str.4, i32 noundef %27)
  %28 = load ptr, ptr @stderr, align 8
  %call16 = call i32 @fflush(ptr noundef %28)
  br label %if.end17

if.end17:                                         ; preds = %if.then14, %for.end
  %29 = load i32, ptr %r, align 4
  %cmp18 = icmp sge i32 %29, 0
  br i1 %cmp18, label %if.then20, label %if.else21

if.then20:                                        ; preds = %if.end17
  br label %if.end22

if.else21:                                        ; preds = %if.end17
  call void @__assert_fail(ptr noundef @.str.5, ptr noundef @.str.6, i32 noundef 464, ptr noundef @__PRETTY_FUNCTION__.vhost_net_stop) #8
  unreachable

if.end22:                                         ; preds = %if.then20
  ret void
}