; Function Attrs: nounwind sspstrong uwtable
define dso_local void @vhost_net_stop(ptr noundef %dev, ptr noundef %ncs, i32 noundef %data_queue_pairs, i32 noundef %cvq) local_unnamed_addr #0 {
entry:
  %call.i = tail call ptr @object_dynamic_cast_assert(ptr noundef %dev, ptr noundef nonnull @.str.17, ptr noundef nonnull @.str.16, i32 noundef 77, ptr noundef nonnull @__func__.DEVICE) #11
  %call1 = tail call ptr @qdev_get_parent_bus(ptr noundef %call.i) #11
  %call.i13 = tail call ptr @object_dynamic_cast_assert(ptr noundef %call1, ptr noundef nonnull @.str.15, ptr noundef nonnull @.str.16, i32 noundef 316, ptr noundef nonnull @__func__.BUS) #11
  %call.i14 = tail call ptr @object_dynamic_cast_assert(ptr noundef %call.i13, ptr noundef nonnull @.str.18, ptr noundef nonnull @.str.19, i32 noundef 36, ptr noundef nonnull @__func__.VIRTIO_BUS) #11
  %call.i15 = tail call ptr @object_get_class(ptr noundef %call.i14) #11
  %call1.i = tail call ptr @object_class_dynamic_cast_assert(ptr noundef %call.i15, ptr noundef nonnull @.str.18, ptr noundef nonnull @.str.19, i32 noundef 36, ptr noundef nonnull @__func__.VIRTIO_BUS_GET_CLASS) #11
  %call.i16 = tail call ptr @object_dynamic_cast_assert(ptr noundef %dev, ptr noundef nonnull @.str.20, ptr noundef nonnull @.str.21, i32 noundef 27, ptr noundef nonnull @__func__.VIRTIO_NET) #11
  %mul = shl i32 %data_queue_pairs, 1
  %add = add i32 %mul, %cvq
  %add6 = add i32 %cvq, %data_queue_pairs
  %cmp19 = icmp sgt i32 %add6, 0
  br i1 %cmp19, label %for.body.lr.ph, label %for.end

for.body.lr.ph:                                   ; preds = %entry
  %max_queue_pairs = getelementptr inbounds nuw i8, ptr %call.i16, i64 8948
  br label %for.body

for.body:                                         ; preds = %for.body.lr.ph, %get_vhost_net.exit
  %i.020 = phi i32 [ 0, %for.body.lr.ph ], [ %inc, %get_vhost_net.exit ]
  %cmp7 = icmp slt i32 %i.020, %data_queue_pairs
  br i1 %cmp7, label %if.end, label %if.else

if.else:                                          ; preds = %for.body
  %0 = load i16, ptr %max_queue_pairs, align 4
  %conv = zext i16 %0 to i32
  br label %if.end

if.end:                                           ; preds = %for.body, %if.else
  %conv.sink = phi i32 [ %conv, %if.else ], [ %i.020, %for.body ]
  %call9 = tail call ptr @qemu_get_peer(ptr noundef %ncs, i32 noundef %conv.sink) #11
  %tobool.not.i = icmp eq ptr %call9, null
  br i1 %tobool.not.i, label %get_vhost_net.exit, label %if.end.i

if.end.i:                                         ; preds = %if.end
  %1 = load ptr, ptr %call9, align 8
  %2 = load i32, ptr %1, align 8
  switch i32 %2, label %get_vhost_net.exit [
    i32 3, label %sw.bb.i
    i32 12, label %sw.bb1.i
    i32 13, label %sw.bb6.i
  ]

sw.bb.i:                                          ; preds = %if.end.i
  %call.i17 = tail call ptr @tap_get_vhost_net(ptr noundef nonnull %call9) #11
  br label %get_vhost_net.exit

sw.bb1.i:                                         ; preds = %if.end.i
  %call2.i = tail call ptr @vhost_user_get_vhost_net(ptr noundef nonnull %call9) #11
  %tobool3.not.i = icmp eq ptr %call2.i, null
  br i1 %tobool3.not.i, label %if.else.i, label %get_vhost_net.exit

if.else.i:                                        ; preds = %sw.bb1.i
  tail call void @__assert_fail(ptr noundef nonnull @.str.9, ptr noundef nonnull @.str.6, i32 noundef 523, ptr noundef nonnull @__PRETTY_FUNCTION__.get_vhost_net) #14
  unreachable

sw.bb6.i:                                         ; preds = %if.end.i
  %call7.i = tail call ptr @vhost_vdpa_get_vhost_net(ptr noundef nonnull %call9) #11
  %tobool8.not.i = icmp eq ptr %call7.i, null
  br i1 %tobool8.not.i, label %if.else10.i, label %get_vhost_net.exit

if.else10.i:                                      ; preds = %sw.bb6.i
  tail call void @__assert_fail(ptr noundef nonnull @.str.9, ptr noundef nonnull @.str.6, i32 noundef 529, ptr noundef nonnull @__PRETTY_FUNCTION__.get_vhost_net) #14
  unreachable

get_vhost_net.exit:                               ; preds = %if.end, %if.end.i, %sw.bb.i, %sw.bb1.i, %sw.bb6.i
  %retval.0.i = phi ptr [ null, %if.end ], [ null, %if.end.i ], [ %call7.i, %sw.bb6.i ], [ %call2.i, %sw.bb1.i ], [ %call.i17, %sw.bb.i ]
  tail call fastcc void @vhost_net_stop_one(ptr noundef %retval.0.i, ptr noundef %dev)
  %inc = add nuw nsw i32 %i.020, 1
  %exitcond.not = icmp eq i32 %inc, %add6
  br i1 %exitcond.not, label %for.end, label %for.body, !llvm.loop !12

for.end:                                          ; preds = %get_vhost_net.exit, %entry
  %set_guest_notifiers = getelementptr inbounds nuw i8, ptr %call1.i, i64 240
  %3 = load ptr, ptr %set_guest_notifiers, align 8
  %parent = getelementptr inbounds nuw i8, ptr %call.i13, i64 40
  %4 = load ptr, ptr %parent, align 8
  %call11 = tail call i32 %3(ptr noundef %4, i32 noundef %add, i1 noundef zeroext false) #11
  %cmp12 = icmp slt i32 %call11, 0
  br i1 %cmp12, label %if.else21, label %if.end22

if.else21:                                        ; preds = %for.end
  %5 = load ptr, ptr @stderr, align 8
  %call15 = tail call i32 (ptr, ptr, ...) @fprintf(ptr noundef %5, ptr noundef nonnull @.str.4, i32 noundef %call11) #13
  %6 = load ptr, ptr @stderr, align 8
  %call16 = tail call i32 @fflush(ptr noundef %6)
  tail call void @__assert_fail(ptr noundef nonnull @.str.5, ptr noundef nonnull @.str.6, i32 noundef 464, ptr noundef nonnull @__PRETTY_FUNCTION__.vhost_net_stop) #14
  unreachable

if.end22:                                         ; preds = %for.end
  ret void
}